; Function Attrs: mustprogress nofree norecurse nosync nounwind memory(readwrite, inaccessiblemem: none) uwtable
define void @_ZN10OpenSubdiv6v3_6_03Vtr8internal14FVarRefinement35populateChildValuesFromFaceVerticesEv(ptr noundef nonnull readonly align 8 captures(none) dereferenceable(64) %0) local_unnamed_addr #5 align 2 {
  %2 = load ptr, ptr %0, align 8
  %3 = getelementptr inbounds nuw i8, ptr %2, i64 52
  %4 = load i32, ptr %3, align 4
  %5 = icmp sgt i32 %4, 0
  br i1 %5, label %.lr.ph, label %._crit_edge

.lr.ph:                                           ; preds = %1
  %6 = getelementptr inbounds nuw i8, ptr %2, i64 76
  %7 = load i32, ptr %6, align 4
  %8 = add nsw i32 %4, %7
  %9 = getelementptr inbounds nuw i8, ptr %0, i64 32
  %10 = sext i32 %7 to i64
  %11 = sext i32 %8 to i64
  br label %12

12:                                               ; preds = %.lr.ph, %12
  %indvars.iv = phi i64 [ %10, %.lr.ph ], [ %indvars.iv.next, %12 ]
  %13 = load ptr, ptr %9, align 8
  %14 = getelementptr inbounds nuw i8, ptr %13, i64 16
  %15 = load i32, ptr %14, align 8
  %16 = getelementptr inbounds nuw i8, ptr %13, i64 96
  %17 = load ptr, ptr %16, align 8
  %18 = getelementptr inbounds i32, ptr %17, i64 %indvars.iv
  store i32 %15, ptr %18, align 4
  %19 = load ptr, ptr %9, align 8
  %20 = getelementptr inbounds nuw i8, ptr %19, i64 72
  %21 = load ptr, ptr %20, align 8
  %22 = getelementptr inbounds i16, ptr %21, i64 %indvars.iv
  store i16 1, ptr %22, align 2
  %23 = load ptr, ptr %9, align 8
  %24 = getelementptr inbounds nuw i8, ptr %23, i64 16
  %25 = load i32, ptr %24, align 8
  %26 = add nsw i32 %25, 1
  store i32 %26, ptr %24, align 8
  %indvars.iv.next = add nsw i64 %indvars.iv, 1
  %27 = icmp slt i64 %indvars.iv.next, %11
  br i1 %27, label %12, label %._crit_edge, !llvm.loop !16

._crit_edge:                                      ; preds = %12, %1
  ret void
}